; Function Attrs: nofree norecurse nosync nounwind memory(argmem: readwrite) uwtable
define internal fastcc void @png_format_buffer(i32 %.544.val, ptr noundef nonnull writeonly captures(none) %0, ptr noundef readonly captures(address_is_null) %1) unnamed_addr #2 {
  br label %3

3:                                                ; preds = %2, %32
  %.0382 = phi i32 [ 0, %2 ], [ %.1, %32 ]
  %.0391 = phi i32 [ 24, %2 ], [ %6, %32 ]
  %4 = lshr i32 %.544.val, %.0391
  %5 = and i32 %4, 255
  %6 = add nsw i32 %.0391, -8
  %7 = add nsw i32 %5, -123
  %or.cond = icmp ult i32 %7, -58
  %8 = add nsw i32 %5, -91
  %9 = icmp ult i32 %8, 6
  %10 = select i1 %or.cond, i1 true, i1 %9
  br i1 %10, label %11, label %27

11:                                               ; preds = %3
  %12 = sext i32 %.0382 to i64
  %13 = getelementptr inbounds i8, ptr %0, i64 %12
  store i8 91, ptr %13, align 1, !tbaa !24
  %14 = lshr i32 %4, 4
  %15 = and i32 %14, 15
  %16 = zext nneg i32 %15 to i64
  %17 = getelementptr inbounds nuw [16 x i8], ptr @png_digit, i64 0, i64 %16
  %18 = load i8, ptr %17, align 1, !tbaa !24
  %19 = getelementptr i8, ptr %13, i64 1
  store i8 %18, ptr %19, align 1, !tbaa !24
  %20 = and i32 %4, 15
  %21 = zext nneg i32 %20 to i64
  %22 = getelementptr inbounds nuw [16 x i8], ptr @png_digit, i64 0, i64 %21
  %23 = load i8, ptr %22, align 1, !tbaa !24
  %24 = getelementptr i8, ptr %13, i64 2
  store i8 %23, ptr %24, align 1, !tbaa !24
  %25 = add nsw i32 %.0382, 4
  %26 = getelementptr i8, ptr %13, i64 3
  store i8 93, ptr %26, align 1, !tbaa !24
  br label %32

27:                                               ; preds = %3
  %28 = trunc i32 %4 to i8
  %29 = add nsw i32 %.0382, 1
  %30 = sext i32 %.0382 to i64
  %31 = getelementptr inbounds i8, ptr %0, i64 %30
  store i8 %28, ptr %31, align 1, !tbaa !24
  br label %32

32:                                               ; preds = %27, %11
  %.1 = phi i32 [ %25, %11 ], [ %29, %27 ]
  %.not11 = icmp eq i32 %.0391, 0
  br i1 %.not11, label %33, label %3, !llvm.loop !42

33:                                               ; preds = %32
  %34 = icmp eq ptr %1, null
  %35 = sext i32 %.1 to i64
  %36 = getelementptr inbounds i8, ptr %0, i64 %35
  br i1 %34, label %37, label %38

37:                                               ; preds = %33
  store i8 0, ptr %36, align 1, !tbaa !24
  br label %51

38:                                               ; preds = %33
  store i8 58, ptr %36, align 1, !tbaa !24
  %39 = add i32 %.1, 2
  %40 = getelementptr i8, ptr %36, i64 1
  store i8 32, ptr %40, align 1, !tbaa !24
  %41 = sext i32 %39 to i64
  %42 = add i32 %.1, 197
  br label %43

43:                                               ; preds = %38, %46
  %indvars.iv5 = phi i64 [ %41, %38 ], [ %indvars.iv.next6, %46 ]
  %indvars.iv = phi i64 [ 0, %38 ], [ %indvars.iv.next, %46 ]
  %44 = getelementptr inbounds nuw i8, ptr %1, i64 %indvars.iv
  %45 = load i8, ptr %44, align 1, !tbaa !24
  %.not = icmp eq i8 %45, 0
  br i1 %.not, label %.critedge.split.loop.exit12, label %46

46:                                               ; preds = %43
  %indvars.iv.next = add nuw nsw i64 %indvars.iv, 1
  %indvars.iv.next6 = add nsw i64 %indvars.iv5, 1
  %47 = getelementptr inbounds i8, ptr %0, i64 %indvars.iv5
  store i8 %45, ptr %47, align 1, !tbaa !24
  %exitcond.not = icmp eq i64 %indvars.iv.next, 195
  br i1 %exitcond.not, label %.critedge, label %43, !llvm.loop !43

.critedge.split.loop.exit12:                      ; preds = %43
  %48 = trunc nsw i64 %indvars.iv5 to i32
  br label %.critedge

.critedge:                                        ; preds = %46, %.critedge.split.loop.exit12
  %.2.lcssa = phi i32 [ %48, %.critedge.split.loop.exit12 ], [ %42, %46 ]
  %49 = sext i32 %.2.lcssa to i64
  %50 = getelementptr inbounds i8, ptr %0, i64 %49
  store i8 0, ptr %50, align 1, !tbaa !24
  br label %51

51:                                               ; preds = %.critedge, %37
  ret void
}